; Function Attrs: mustprogress nounwind uwtable
define internal void @_ZN9grpc_core12_GLOBAL__N_120XdsClusterResolverLb21EdsDiscoveryMechanismD2Ev(ptr nocapture noundef nonnull align 8 dereferenceable(40) %this) unnamed_addr #7 align 2 personality ptr @__gxx_personality_v0 {
entry:
  store ptr getelementptr inbounds ({ [8 x ptr] }, ptr @_ZTVN9grpc_core12_GLOBAL__N_120XdsClusterResolverLb18DiscoveryMechanismE, i64 0, i32 0, i64 2), ptr %this, align 8
  %parent_.i = getelementptr inbounds i8, ptr %this, i64 16
  %parent_.val.i = load ptr, ptr %parent_.i, align 8
  %cmp.not.i.i = icmp eq ptr %parent_.val.i, null
  br i1 %cmp.not.i.i, label %_ZN9grpc_core12_GLOBAL__N_120XdsClusterResolverLb18DiscoveryMechanismD2Ev.exit, label %if.then.i.i

if.then.i.i:                                      ; preds = %entry
  %refs_.i.i.i = getelementptr inbounds i8, ptr %parent_.val.i, i64 8
  %0 = atomicrmw sub ptr %refs_.i.i.i, i64 1 acq_rel, align 8
  %cmp.i.i.i.i = icmp eq i64 %0, 1
  br i1 %cmp.i.i.i.i, label %if.then.i.i.i, label %_ZN9grpc_core12_GLOBAL__N_120XdsClusterResolverLb18DiscoveryMechanismD2Ev.exit

if.then.i.i.i:                                    ; preds = %if.then.i.i
  %vtable.i.i.i.i = load ptr, ptr %parent_.val.i, align 8
  %vfn.i.i.i.i = getelementptr inbounds i8, ptr %vtable.i.i.i.i, i64 16
  %1 = load ptr, ptr %vfn.i.i.i.i, align 8
  tail call void %1(ptr noundef nonnull align 8 dereferenceable(56) %parent_.val.i) #27
  br label %_ZN9grpc_core12_GLOBAL__N_120XdsClusterResolverLb18DiscoveryMechanismD2Ev.exit

_ZN9grpc_core12_GLOBAL__N_120XdsClusterResolverLb18DiscoveryMechanismD2Ev.exit: ; preds = %entry, %if.then.i.i, %if.then.i.i.i
  ret void
}